target datalayout = "e-m:e-p270:32:32-p271:32:32-p272:64:64-i64:64-i128:128-f80:128-n8:16:32:64-S128"
target triple = "x86_64-pc-linux-gnu"

%"class.zmq::trie_t" = type { i32, i8, i16, i16, %union.anon }
%union.anon = type { ptr }

; Function Attrs: mustprogress nounwind uwtable
define void @_ZN3zmq6trie_tC2Ev(ptr noundef nonnull align 8 dereferenceable(24) %0) unnamed_addr #0 align 2 {
  %2 = alloca ptr, align 8
  store ptr %0, ptr %2, align 8, !tbaa !3
  %3 = load ptr, ptr %2, align 8
  %4 = getelementptr inbounds nuw %"class.zmq::trie_t", ptr %3, i32 0, i32 0
  store i32 0, ptr %4, align 8, !tbaa !8
  %5 = getelementptr inbounds nuw %"class.zmq::trie_t", ptr %3, i32 0, i32 1
  store i8 0, ptr %5, align 4, !tbaa !12
  %6 = getelementptr inbounds nuw %"class.zmq::trie_t", ptr %3, i32 0, i32 2
  store i16 0, ptr %6, align 2, !tbaa !13
  %7 = getelementptr inbounds nuw %"class.zmq::trie_t", ptr %3, i32 0, i32 3
  store i16 0, ptr %7, align 8, !tbaa !14
  ret void
}