; Function Attrs: mustprogress nofree norecurse nosync nounwind willreturn memory(argmem: write) uwtable
define void @_ZN3zmq6trie_tC2Ev(ptr noundef nonnull writeonly align 8 captures(none) dereferenceable(24) initializes((0, 5), (6, 10)) %0) unnamed_addr #0 align 2 {
  store i32 0, ptr %0, align 8, !tbaa !3
  %2 = getelementptr inbounds nuw i8, ptr %0, i64 4
  store i8 0, ptr %2, align 4, !tbaa !9
  %3 = getelementptr inbounds nuw i8, ptr %0, i64 6
  store i16 0, ptr %3, align 2, !tbaa !10
  %4 = getelementptr inbounds nuw i8, ptr %0, i64 8
  store i16 0, ptr %4, align 8, !tbaa !11
  ret void
}